target datalayout = "e-m:e-p270:32:32-p271:32:32-p272:64:64-i64:64-i128:128-f80:128-n8:16:32:64-S128"
target triple = "x86_64-pc-linux-gnu"

%struct.ggml_backend_buffer_i = type { ptr, ptr, ptr, ptr, ptr, ptr, ptr, ptr, ptr }
%struct.ggml_backend_buffer = type { %struct.ggml_backend_buffer_i, ptr, ptr, i64, i32 }
%struct.ggml_backend_multi_buffer_context = type { ptr, i64 }

@.str = private unnamed_addr constant [123 x i8] c"generated/home/dtcxzyw/WorkSpace/Projects/compilers/llvm-opt-benchmark/bench/llama.cpp/llama.cpp/ggml/src/ggml-backend.cpp\00", align 1
@.str.1 = private unnamed_addr constant [23 x i8] c"GGML_ASSERT(%s) failed\00", align 1
@.str.17 = private unnamed_addr constant [21 x i8] c"ctx->buffers != NULL\00", align 1

; Function Attrs: mustprogress uwtable
define ptr @ggml_backend_buffer_init(ptr noundef %0, ptr noundef byval(%struct.ggml_backend_buffer_i) align 8 %1, ptr noundef %2, i64 noundef %3) #0 {
  %5 = alloca ptr, align 8
  %6 = alloca ptr, align 8
  %7 = alloca i64, align 8
  %8 = alloca ptr, align 8
  store ptr %0, ptr %5, align 8, !tbaa !3
  store ptr %2, ptr %6, align 8, !tbaa !15
  store i64 %3, ptr %7, align 8, !tbaa !12
  call void @llvm.lifetime.start.p0(i64 8, ptr %8) #15
  %9 = call noalias noundef nonnull ptr @_Znwm(i64 noundef 104) #16
  %10 = getelementptr inbounds nuw %struct.ggml_backend_buffer, ptr %9, i32 0, i32 0
  call void @llvm.memcpy.p0.p0.i64(ptr align 16 %10, ptr align 8 %1, i64 72, i1 false), !tbaa.struct !16
  %11 = getelementptr inbounds nuw %struct.ggml_backend_buffer, ptr %9, i32 0, i32 1
  %12 = load ptr, ptr %5, align 8, !tbaa !3
  store ptr %12, ptr %11, align 8, !tbaa !17
  %13 = getelementptr inbounds nuw %struct.ggml_backend_buffer, ptr %9, i32 0, i32 2
  %14 = load ptr, ptr %6, align 8, !tbaa !15
  store ptr %14, ptr %13, align 16, !tbaa !21
  %15 = getelementptr inbounds nuw %struct.ggml_backend_buffer, ptr %9, i32 0, i32 3
  %16 = load i64, ptr %7, align 8, !tbaa !12
  store i64 %16, ptr %15, align 8, !tbaa !22
  %17 = getelementptr inbounds nuw %struct.ggml_backend_buffer, ptr %9, i32 0, i32 4
  store i32 0, ptr %17, align 16, !tbaa !23
  store ptr %9, ptr %8, align 8, !tbaa !24
  %18 = load ptr, ptr %8, align 8, !tbaa !24
  call void @llvm.lifetime.end.p0(i64 8, ptr %8) #15
  ret ptr %18
}

; Function Attrs: mustprogress nounwind uwtable
define i64 @ggml_backend_buffer_get_size(ptr noundef %0) #4 {
  %2 = alloca ptr, align 8
  store ptr %0, ptr %2, align 8, !tbaa !24
  %3 = load ptr, ptr %2, align 8, !tbaa !24
  %4 = getelementptr inbounds nuw %struct.ggml_backend_buffer, ptr %3, i32 0, i32 3
  %5 = load i64, ptr %4, align 8, !tbaa !22
  ret i64 %5
}

; Function Attrs: mustprogress uwtable
define ptr @ggml_backend_multi_buffer_alloc_buffer(ptr noundef %0, i64 noundef %1) #0 {
  %3 = alloca ptr, align 8
  %4 = alloca i64, align 8
  %5 = alloca ptr, align 8
  %6 = alloca i64, align 8
  %7 = alloca i64, align 8
  %8 = alloca %struct.ggml_backend_buffer_i, align 8
  store ptr %0, ptr %3, align 8, !tbaa !122
  store i64 %1, ptr %4, align 8, !tbaa !12
  call void @llvm.lifetime.start.p0(i64 8, ptr %5) #15
  %9 = call noalias ptr @malloc(i64 noundef 16) #19
  store ptr %9, ptr %5, align 8, !tbaa !39
  %10 = load i64, ptr %4, align 8, !tbaa !12
  %11 = load ptr, ptr %5, align 8, !tbaa !39
  %12 = getelementptr inbounds nuw %struct.ggml_backend_multi_buffer_context, ptr %11, i32 0, i32 1
  store i64 %10, ptr %12, align 8, !tbaa !41
  %13 = load i64, ptr %4, align 8, !tbaa !12
  %14 = mul i64 %13, 8
  %15 = call noalias ptr @malloc(i64 noundef %14) #19
  %16 = load ptr, ptr %5, align 8, !tbaa !39
  %17 = getelementptr inbounds nuw %struct.ggml_backend_multi_buffer_context, ptr %16, i32 0, i32 0
  store ptr %15, ptr %17, align 8, !tbaa !45
  %18 = load ptr, ptr %5, align 8, !tbaa !39
  %19 = getelementptr inbounds nuw %struct.ggml_backend_multi_buffer_context, ptr %18, i32 0, i32 0
  %20 = load ptr, ptr %19, align 8, !tbaa !45
  %21 = icmp ne ptr %20, null
  br i1 %21, label %23, label %22

22:                                               ; preds = %2
  call void (ptr, i32, ptr, ...) @ggml_abort(ptr noundef @.str, i32 noundef 571, ptr noundef @.str.1, ptr noundef @.str.17) #18
  unreachable

23:                                               ; preds = %2
  call void @llvm.lifetime.start.p0(i64 8, ptr %6) #15
  store i64 0, ptr %6, align 8, !tbaa !12
  call void @llvm.lifetime.start.p0(i64 8, ptr %7) #15
  store i64 0, ptr %7, align 8, !tbaa !12
  br label %24

24:                                               ; preds = %46, %23
  %25 = load i64, ptr %7, align 8, !tbaa !12
  %26 = load i64, ptr %4, align 8, !tbaa !12
  %27 = icmp ult i64 %25, %26
  br i1 %27, label %29, label %28

28:                                               ; preds = %24
  call void @llvm.lifetime.end.p0(i64 8, ptr %7) #15
  br label %49

29:                                               ; preds = %24
  %30 = load ptr, ptr %3, align 8, !tbaa !122
  %31 = load i64, ptr %7, align 8, !tbaa !12
  %32 = getelementptr inbounds nuw ptr, ptr %30, i64 %31
  %33 = load ptr, ptr %32, align 8, !tbaa !24
  %34 = load ptr, ptr %5, align 8, !tbaa !39
  %35 = getelementptr inbounds nuw %struct.ggml_backend_multi_buffer_context, ptr %34, i32 0, i32 0
  %36 = load ptr, ptr %35, align 8, !tbaa !45
  %37 = load i64, ptr %7, align 8, !tbaa !12
  %38 = getelementptr inbounds nuw ptr, ptr %36, i64 %37
  store ptr %33, ptr %38, align 8, !tbaa !24
  %39 = load ptr, ptr %3, align 8, !tbaa !122
  %40 = load i64, ptr %7, align 8, !tbaa !12
  %41 = getelementptr inbounds nuw ptr, ptr %39, i64 %40
  %42 = load ptr, ptr %41, align 8, !tbaa !24
  %43 = call i64 @ggml_backend_buffer_get_size(ptr noundef %42)
  %44 = load i64, ptr %6, align 8, !tbaa !12
  %45 = add i64 %44, %43
  store i64 %45, ptr %6, align 8, !tbaa !12
  br label %46

46:                                               ; preds = %29
  %47 = load i64, ptr %7, align 8, !tbaa !12
  %48 = add i64 %47, 1
  store i64 %48, ptr %7, align 8, !tbaa !12
  br label %24, !llvm.loop !123

49:                                               ; preds = %28
  %50 = load ptr, ptr %3, align 8, !tbaa !122
  %51 = getelementptr inbounds ptr, ptr %50, i64 0
  %52 = load ptr, ptr %51, align 8, !tbaa !24
  %53 = getelementptr inbounds nuw %struct.ggml_backend_buffer, ptr %52, i32 0, i32 1
  %54 = load ptr, ptr %53, align 8, !tbaa !17
  call void @llvm.memcpy.p0.p0.i64(ptr align 8 %8, ptr align 8 @_ZL27ggml_backend_multi_buffer_i, i64 72, i1 false), !tbaa.struct !16
  %55 = load ptr, ptr %5, align 8, !tbaa !39
  %56 = load i64, ptr %6, align 8, !tbaa !12
  %57 = call ptr @ggml_backend_buffer_init(ptr noundef %54, ptr noundef byval(%struct.ggml_backend_buffer_i) align 8 %8, ptr noundef %55, i64 noundef %56)
  call void @llvm.lifetime.end.p0(i64 8, ptr %6) #15
  call void @llvm.lifetime.end.p0(i64 8, ptr %5) #15
  ret ptr %57
}