; Function Attrs: mustprogress uwtable
define noalias noundef nonnull ptr @ggml_backend_multi_buffer_alloc_buffer(ptr noundef readonly captures(none) %0, i64 noundef %1) local_unnamed_addr #0 {
  %3 = tail call noalias dereferenceable_or_null(16) ptr @malloc(i64 noundef 16) #25
  %4 = getelementptr inbounds nuw i8, ptr %3, i64 8
  store i64 %1, ptr %4, align 8, !tbaa !31
  %5 = shl i64 %1, 3
  %6 = tail call noalias ptr @malloc(i64 noundef %5) #25
  store ptr %6, ptr %3, align 8, !tbaa !35
  %.not = icmp eq ptr %6, null
  br i1 %.not, label %7, label %.preheader

.preheader:                                       ; preds = %2
  %.not20 = icmp eq i64 %1, 0
  br i1 %.not20, label %._crit_edge, label %.lr.ph

7:                                                ; preds = %2
  tail call void (ptr, i32, ptr, ...) @ggml_abort(ptr noundef nonnull @.str, i32 noundef 571, ptr noundef nonnull @.str.1, ptr noundef nonnull @.str.17) #24
  unreachable

._crit_edge:                                      ; preds = %.lr.ph, %.preheader
  %.017.lcssa = phi i64 [ 0, %.preheader ], [ %21, %.lr.ph ]
  %8 = load ptr, ptr %0, align 8, !tbaa !36
  %9 = getelementptr inbounds nuw i8, ptr %8, i64 72
  %10 = load ptr, ptr %9, align 8, !tbaa !10
  %11 = tail call noalias noundef nonnull dereferenceable(104) ptr @_Znwm(i64 noundef 104) #22
  tail call void @llvm.memcpy.p0.p0.i64(ptr noundef nonnull align 16 dereferenceable(72) %11, ptr noundef nonnull readonly align 8 dereferenceable(72) @_ZL27ggml_backend_multi_buffer_i, i64 72, i1 false), !tbaa.struct !17
  %12 = getelementptr inbounds nuw i8, ptr %11, i64 72
  store ptr %10, ptr %12, align 8, !tbaa !10
  %13 = getelementptr inbounds nuw i8, ptr %11, i64 80
  store ptr %3, ptr %13, align 16, !tbaa !19
  %14 = getelementptr inbounds nuw i8, ptr %11, i64 88
  store i64 %.017.lcssa, ptr %14, align 8, !tbaa !20
  %15 = getelementptr inbounds nuw i8, ptr %11, i64 96
  store i32 0, ptr %15, align 16, !tbaa !21
  ret ptr %11

.lr.ph:                                           ; preds = %.preheader, %.lr.ph
  %.019 = phi i64 [ %22, %.lr.ph ], [ 0, %.preheader ]
  %.01718 = phi i64 [ %21, %.lr.ph ], [ 0, %.preheader ]
  %16 = getelementptr inbounds nuw ptr, ptr %0, i64 %.019
  %17 = load ptr, ptr %16, align 8, !tbaa !36
  %18 = getelementptr inbounds nuw ptr, ptr %6, i64 %.019
  store ptr %17, ptr %18, align 8, !tbaa !36
  %19 = getelementptr inbounds nuw i8, ptr %17, i64 88
  %20 = load i64, ptr %19, align 8, !tbaa !20
  %21 = add i64 %20, %.01718
  %22 = add nuw i64 %.019, 1
  %exitcond.not = icmp eq i64 %22, %1
  br i1 %exitcond.not, label %._crit_edge, label %.lr.ph, !llvm.loop !100
}